; Function Attrs: mustprogress nounwind uwtable
define hidden void @_ZN12Dependencies36assert_has_no_finalizable_subclassesEP5Klass(ptr nocapture noundef nonnull readonly align 8 dereferenceable(192) %0, ptr noundef %1) local_unnamed_addr #0 align 2 {
  %3 = getelementptr inbounds i8, ptr %0, i64 160
  %4 = load ptr, ptr %3, align 8
  %5 = getelementptr inbounds i8, ptr %4, i64 40
  %6 = tail call noundef i32 @_ZN13ValueRecorderIP8MetadataE16maybe_find_indexES1_(ptr noundef nonnull align 8 dereferenceable(33) %5, ptr noundef %1) #18
  %7 = icmp slt i32 %6, 0
  br i1 %7, label %8, label %_ZN12Dependencies8DepValueC2EP11OopRecorderP8MetadataPS0_.exit

8:                                                ; preds = %2
  %9 = tail call noundef i32 @_ZN13ValueRecorderIP8MetadataE10add_handleES1_b(ptr noundef nonnull align 8 dereferenceable(33) %5, ptr noundef %1, i1 noundef zeroext true) #18
  br label %_ZN12Dependencies8DepValueC2EP11OopRecorderP8MetadataPS0_.exit

_ZN12Dependencies8DepValueC2EP11OopRecorderP8MetadataPS0_.exit: ; preds = %2, %8
  %.0.i.i.i = phi i32 [ %9, %8 ], [ %6, %2 ]
  %10 = add nsw i32 %.0.i.i.i, 1
  tail call void @_ZN12Dependencies15assert_common_1ENS_7DepTypeENS_8DepValueE(ptr noundef nonnull align 8 dereferenceable(192) %0, i32 noundef 7, i32 %10)
  ret void
}